target datalayout = "e-m:e-p270:32:32-p271:32:32-p272:64:64-i64:64-i128:128-f80:128-n8:16:32:64-S128"
target triple = "x86_64-unknown-linux-gnu"

@.str = private unnamed_addr constant [12 x i8] c"buf != NULL\00", align 1
@.str.1 = private unnamed_addr constant [21 x i8] c"../qemu/block/vhdx.c\00", align 1
@__PRETTY_FUNCTION__.vhdx_checksum_calc = private unnamed_addr constant [62 x i8] c"uint32_t vhdx_checksum_calc(uint32_t, uint8_t *, size_t, int)\00", align 1
@__PRETTY_FUNCTION__.vhdx_checksum_is_valid = private unnamed_addr constant [53 x i8] c"_Bool vhdx_checksum_is_valid(uint8_t *, size_t, int)\00", align 1
@.str.3 = private unnamed_addr constant [24 x i8] c"size > (crc_offset + 4)\00", align 1

; Function Attrs: nounwind sspstrong uwtable
define dso_local i32 @vhdx_checksum_calc(i32 noundef %crc, ptr noundef %buf, i64 noundef %size, i32 noundef %crc_offset) #0 {
entry:
  %crc.addr = alloca i32, align 4
  %buf.addr = alloca ptr, align 8
  %size.addr = alloca i64, align 8
  %crc_offset.addr = alloca i32, align 4
  %crc_new = alloca i32, align 4
  %crc_orig = alloca i32, align 4
  store i32 %crc, ptr %crc.addr, align 4
  store ptr %buf, ptr %buf.addr, align 8
  store i64 %size, ptr %size.addr, align 8
  store i32 %crc_offset, ptr %crc_offset.addr, align 4
  %0 = load ptr, ptr %buf.addr, align 8
  %cmp = icmp ne ptr %0, null
  br i1 %cmp, label %if.then, label %if.else

if.then:                                          ; preds = %entry
  br label %if.end

if.else:                                          ; preds = %entry
  call void @__assert_fail(ptr noundef @.str, ptr noundef @.str.1, i32 noundef 172, ptr noundef @__PRETTY_FUNCTION__.vhdx_checksum_calc) #10
  unreachable

if.end:                                           ; preds = %if.then
  %1 = load i32, ptr %crc_offset.addr, align 4
  %cmp1 = icmp sgt i32 %1, 0
  br i1 %cmp1, label %if.then2, label %if.end5

if.then2:                                         ; preds = %if.end
  %2 = load ptr, ptr %buf.addr, align 8
  %3 = load i32, ptr %crc_offset.addr, align 4
  %idx.ext = sext i32 %3 to i64
  %add.ptr = getelementptr i8, ptr %2, i64 %idx.ext
  call void @llvm.memcpy.p0.p0.i64(ptr align 4 %crc_orig, ptr align 1 %add.ptr, i64 4, i1 false)
  %4 = load ptr, ptr %buf.addr, align 8
  %5 = load i32, ptr %crc_offset.addr, align 4
  %idx.ext3 = sext i32 %5 to i64
  %add.ptr4 = getelementptr i8, ptr %4, i64 %idx.ext3
  call void @llvm.memset.p0.i64(ptr align 1 %add.ptr4, i8 0, i64 4, i1 false)
  br label %if.end5

if.end5:                                          ; preds = %if.then2, %if.end
  %6 = load i32, ptr %crc.addr, align 4
  %7 = load ptr, ptr %buf.addr, align 8
  %8 = load i64, ptr %size.addr, align 8
  %conv = trunc i64 %8 to i32
  %call = call i32 @crc32c(i32 noundef %6, ptr noundef %7, i32 noundef %conv)
  store i32 %call, ptr %crc_new, align 4
  %9 = load i32, ptr %crc_offset.addr, align 4
  %cmp6 = icmp sgt i32 %9, 0
  br i1 %cmp6, label %if.then8, label %if.end11

if.then8:                                         ; preds = %if.end5
  %10 = load ptr, ptr %buf.addr, align 8
  %11 = load i32, ptr %crc_offset.addr, align 4
  %idx.ext9 = sext i32 %11 to i64
  %add.ptr10 = getelementptr i8, ptr %10, i64 %idx.ext9
  call void @llvm.memcpy.p0.p0.i64(ptr align 1 %add.ptr10, ptr align 4 %crc_orig, i64 4, i1 false)
  br label %if.end11

if.end11:                                         ; preds = %if.then8, %if.end5
  %12 = load i32, ptr %crc_new, align 4
  ret i32 %12
}

; Function Attrs: nounwind sspstrong uwtable
define internal i32 @le32_to_cpu(i32 noundef %v) #0 {
entry:
  %v.addr = alloca i32, align 4
  store i32 %v, ptr %v.addr, align 4
  %0 = load i32, ptr %v.addr, align 4
  ret i32 %0
}

; Function Attrs: nounwind sspstrong uwtable
define dso_local zeroext i1 @vhdx_checksum_is_valid(ptr noundef %buf, i64 noundef %size, i32 noundef %crc_offset) #0 {
entry:
  %buf.addr = alloca ptr, align 8
  %size.addr = alloca i64, align 8
  %crc_offset.addr = alloca i32, align 4
  %crc_orig = alloca i32, align 4
  %crc = alloca i32, align 4
  store ptr %buf, ptr %buf.addr, align 8
  store i64 %size, ptr %size.addr, align 8
  store i32 %crc_offset, ptr %crc_offset.addr, align 4
  %0 = load ptr, ptr %buf.addr, align 8
  %cmp = icmp ne ptr %0, null
  br i1 %cmp, label %if.then, label %if.else

if.then:                                          ; preds = %entry
  br label %if.end

if.else:                                          ; preds = %entry
  call void @__assert_fail(ptr noundef @.str, ptr noundef @.str.1, i32 noundef 205, ptr noundef @__PRETTY_FUNCTION__.vhdx_checksum_is_valid) #10
  unreachable

if.end:                                           ; preds = %if.then
  %1 = load i64, ptr %size.addr, align 8
  %2 = load i32, ptr %crc_offset.addr, align 4
  %add = add i32 %2, 4
  %conv = sext i32 %add to i64
  %cmp1 = icmp ugt i64 %1, %conv
  br i1 %cmp1, label %if.then3, label %if.else4

if.then3:                                         ; preds = %if.end
  br label %if.end5

if.else4:                                         ; preds = %if.end
  call void @__assert_fail(ptr noundef @.str.3, ptr noundef @.str.1, i32 noundef 206, ptr noundef @__PRETTY_FUNCTION__.vhdx_checksum_is_valid) #10
  unreachable

if.end5:                                          ; preds = %if.then3
  %3 = load ptr, ptr %buf.addr, align 8
  %4 = load i32, ptr %crc_offset.addr, align 4
  %idx.ext = sext i32 %4 to i64
  %add.ptr = getelementptr i8, ptr %3, i64 %idx.ext
  call void @llvm.memcpy.p0.p0.i64(ptr align 4 %crc_orig, ptr align 1 %add.ptr, i64 4, i1 false)
  %5 = load i32, ptr %crc_orig, align 4
  %call = call i32 @le32_to_cpu(i32 noundef %5)
  store i32 %call, ptr %crc_orig, align 4
  %6 = load ptr, ptr %buf.addr, align 8
  %7 = load i64, ptr %size.addr, align 8
  %8 = load i32, ptr %crc_offset.addr, align 4
  %call6 = call i32 @vhdx_checksum_calc(i32 noundef -1, ptr noundef %6, i64 noundef %7, i32 noundef %8)
  store i32 %call6, ptr %crc, align 4
  %9 = load i32, ptr %crc, align 4
  %10 = load i32, ptr %crc_orig, align 4
  %cmp7 = icmp eq i32 %9, %10
  ret i1 %cmp7
}