; Function Attrs: nounwind sspstrong uwtable
define dso_local zeroext i1 @vhdx_checksum_is_valid(ptr noundef %buf, i64 noundef %size, i32 noundef %crc_offset) local_unnamed_addr #0 {
entry:
  %cmp.not = icmp eq ptr %buf, null
  br i1 %cmp.not, label %if.else, label %if.end

if.else:                                          ; preds = %entry
  tail call void @__assert_fail(ptr noundef nonnull @.str, ptr noundef nonnull @.str.1, i32 noundef 205, ptr noundef nonnull @__PRETTY_FUNCTION__.vhdx_checksum_is_valid) #16
  unreachable

if.end:                                           ; preds = %entry
  %add = add i32 %crc_offset, 4
  %conv = sext i32 %add to i64
  %cmp1 = icmp ugt i64 %size, %conv
  br i1 %cmp1, label %if.end.i, label %if.else4

if.else4:                                         ; preds = %if.end
  tail call void @__assert_fail(ptr noundef nonnull @.str.3, ptr noundef nonnull @.str.1, i32 noundef 206, ptr noundef nonnull @__PRETTY_FUNCTION__.vhdx_checksum_is_valid) #16
  unreachable

if.end.i:                                         ; preds = %if.end
  %idx.ext = sext i32 %crc_offset to i64
  %add.ptr = getelementptr i8, ptr %buf, i64 %idx.ext
  %crc_orig.0.copyload = load i32, ptr %add.ptr, align 1
  %cmp1.i = icmp sgt i32 %crc_offset, 0
  br i1 %cmp1.i, label %if.then8.i, label %if.end5.i

if.end5.i:                                        ; preds = %if.end.i
  %conv.i = trunc i64 %size to i32
  %call.i = tail call i32 @crc32c(i32 noundef -1, ptr noundef nonnull %buf, i32 noundef %conv.i) #17
  br label %vhdx_checksum_calc.exit

if.then8.i:                                       ; preds = %if.end.i
  %idx.ext.i = zext nneg i32 %crc_offset to i64
  %add.ptr.i = getelementptr i8, ptr %buf, i64 %idx.ext.i
  store i32 0, ptr %add.ptr.i, align 1
  %conv11.i = trunc i64 %size to i32
  %call12.i = tail call i32 @crc32c(i32 noundef -1, ptr noundef nonnull %buf, i32 noundef %conv11.i) #17
  store i32 %crc_orig.0.copyload, ptr %add.ptr.i, align 1
  br label %vhdx_checksum_calc.exit

vhdx_checksum_calc.exit:                          ; preds = %if.end5.i, %if.then8.i
  %call14.i = phi i32 [ %call12.i, %if.then8.i ], [ %call.i, %if.end5.i ]
  %cmp7 = icmp eq i32 %call14.i, %crc_orig.0.copyload
  ret i1 %cmp7
}